target datalayout = "e-m:e-p270:32:32-p271:32:32-p272:64:64-i64:64-i128:128-f80:128-n8:16:32:64-S128"
target triple = "x86_64-pc-linux-gnu"

%"struct.dpx::GenericHeader" = type { i32, i32, [8 x i8], i32, i32, i32, i32, i32, [100 x i8], [24 x i8], [100 x i8], [200 x i8], [200 x i8], i32, [104 x i8], i16, i16, i32, i32, [8 x %"struct.dpx::ImageElement"], [52 x i8], i32, i32, float, float, i32, i32, [100 x i8], [24 x i8], [32 x i8], [32 x i8], [4 x i16], [2 x i32], float, float, [20 x i8] }
%"struct.dpx::ImageElement" = type { i32, i32, float, i32, float, i8, i8, i8, i8, i16, i16, i32, i32, i32, [32 x i8] }

; Function Attrs: mustprogress nounwind uwtable
define hidden noundef i32 @_ZNK3dpx13GenericHeader17ComponentDataSizeEi(ptr noundef nonnull align 4 dereferenceable(1664) %0, i32 noundef %1) #6 align 2 {
  %3 = alloca i32, align 4
  %4 = alloca ptr, align 8
  %5 = alloca i32, align 4
  %6 = alloca i32, align 4
  store ptr %0, ptr %4, align 8, !tbaa !19
  store i32 %1, ptr %5, align 4, !tbaa !42
  %7 = load ptr, ptr %4, align 8
  %8 = load i32, ptr %5, align 4, !tbaa !42
  %9 = icmp slt i32 %8, 0
  br i1 %9, label %13, label %10

10:                                               ; preds = %2
  %11 = load i32, ptr %5, align 4, !tbaa !42
  %12 = icmp sge i32 %11, 8
  br i1 %12, label %13, label %14

13:                                               ; preds = %10, %2
  store i32 0, ptr %3, align 4
  br label %29

14:                                               ; preds = %10
  call void @llvm.lifetime.start.p0(i64 4, ptr %6) #5
  %15 = getelementptr inbounds nuw %"struct.dpx::GenericHeader", ptr %7, i32 0, i32 19
  %16 = load i32, ptr %5, align 4, !tbaa !42
  %17 = sext i32 %16 to i64
  %18 = getelementptr inbounds [8 x %"struct.dpx::ImageElement"], ptr %15, i64 0, i64 %17
  %19 = getelementptr inbounds nuw %"struct.dpx::ImageElement", ptr %18, i32 0, i32 8
  %20 = load i8, ptr %19, align 1, !tbaa !87
  %21 = zext i8 %20 to i32
  switch i32 %21, label %26 [
    i32 8, label %22
    i32 10, label %23
    i32 12, label %23
    i32 16, label %23
    i32 32, label %24
    i32 64, label %25
  ]

22:                                               ; preds = %14
  store i32 0, ptr %6, align 4, !tbaa !115
  br label %27

23:                                               ; preds = %14, %14, %14
  store i32 1, ptr %6, align 4, !tbaa !115
  br label %27

24:                                               ; preds = %14
  store i32 3, ptr %6, align 4, !tbaa !115
  br label %27

25:                                               ; preds = %14
  store i32 4, ptr %6, align 4, !tbaa !115
  br label %27

26:                                               ; preds = %14
  store i32 4, ptr %6, align 4, !tbaa !115
  br label %27

27:                                               ; preds = %26, %25, %24, %23, %22
  %28 = load i32, ptr %6, align 4, !tbaa !115
  store i32 %28, ptr %3, align 4
  call void @llvm.lifetime.end.p0(i64 4, ptr %6) #5
  br label %29

29:                                               ; preds = %27, %13
  %30 = load i32, ptr %3, align 4
  ret i32 %30
}